; ModuleID = '46/2967.c'
source_filename = "46/2967.c"
target datalayout = "e-m:e-p270:32:32-p271:32:32-p272:64:64-i64:64-f80:128-n8:16:32:64-S128"
target triple = "x86_64-pc-linux-gnu"

@x = dso_local constant [5 x i32] [i32 0, i32 0, i32 1, i32 0, i32 -1], align 16
@y = dso_local constant [5 x i32] [i32 0, i32 1, i32 0, i32 -1, i32 0], align 16
@.str = private unnamed_addr constant [6 x i8] c"%d %d\00", align 1
@.str.1 = private unnamed_addr constant [3 x i8] c"%d\00", align 1
@f = common dso_local global [1000 x [1000 x i32]] zeroinitializer, align 16
@.str.2 = private unnamed_addr constant [4 x i8] c"%d\0A\00", align 1

; Function Attrs: noinline nounwind uwtable
define dso_local i32 @main() #0 {
  %1 = alloca i32, align 4
  %2 = alloca i32, align 4
  %3 = alloca i32, align 4
  %4 = alloca i32, align 4
  %5 = alloca i32, align 4
  %6 = alloca i32, align 4
  %7 = alloca i32, align 4
  %8 = alloca i32, align 4
  %9 = alloca i32, align 4
  %10 = alloca i32, align 4
  %11 = alloca i32, align 4
  %12 = alloca i32, align 4
  %13 = alloca i32, align 4
  %14 = alloca i32, align 4
  %15 = alloca i32, align 4
  store i32 0, i32* %1, align 4
  store i32 1, i32* %4, align 4
  %16 = call i32 (i8*, ...) @__isoc99_scanf(i8* getelementptr inbounds ([6 x i8], [6 x i8]* @.str, i64 0, i64 0), i32* %2, i32* %3)
  store i32 1, i32* %5, align 4
  br label %17

17:                                               ; preds = %38, %0
  %18 = load i32, i32* %5, align 4
  %19 = load i32, i32* %2, align 4
  %20 = icmp sle i32 %18, %19
  br i1 %20, label %21, label %41

21:                                               ; preds = %17
  store i32 1, i32* %6, align 4
  br label %22

22:                                               ; preds = %34, %21
  %23 = load i32, i32* %6, align 4
  %24 = load i32, i32* %3, align 4
  %25 = icmp sle i32 %23, %24
  br i1 %25, label %26, label %37

26:                                               ; preds = %22
  %27 = load i32, i32* %5, align 4
  %28 = sext i32 %27 to i64
  %29 = getelementptr inbounds [1000 x [1000 x i32]], [1000 x [1000 x i32]]* @f, i64 0, i64 %28
  %30 = load i32, i32* %6, align 4
  %31 = sext i32 %30 to i64
  %32 = getelementptr inbounds [1000 x i32], [1000 x i32]* %29, i64 0, i64 %31
  %33 = call i32 (i8*, ...) @__isoc99_scanf(i8* getelementptr inbounds ([3 x i8], [3 x i8]* @.str.1, i64 0, i64 0), i32* %32)
  br label %34

34:                                               ; preds = %26
  %35 = load i32, i32* %6, align 4
  %36 = add nsw i32 %35, 1
  store i32 %36, i32* %6, align 4
  br label %22

37:                                               ; preds = %22
  br label %38

38:                                               ; preds = %37
  %39 = load i32, i32* %5, align 4
  %40 = add nsw i32 %39, 1
  store i32 %40, i32* %5, align 4
  br label %17

41:                                               ; preds = %17
  store i32 1, i32* %7, align 4
  store i32 1, i32* %8, align 4
  %42 = load i32, i32* %2, align 4
  store i32 %42, i32* %9, align 4
  %43 = load i32, i32* %3, align 4
  store i32 %43, i32* %10, align 4
  store i32 1, i32* %11, align 4
  store i32 1, i32* %12, align 4
  store i32 0, i32* %13, align 4
  br label %44

44:                                               ; preds = %131, %41
  %45 = load i32, i32* %13, align 4
  %46 = load i32, i32* %2, align 4
  %47 = load i32, i32* %3, align 4
  %48 = mul nsw i32 %46, %47
  %49 = icmp slt i32 %45, %48
  br i1 %49, label %50, label %134

50:                                               ; preds = %44
  %51 = load i32, i32* %7, align 4
  %52 = sext i32 %51 to i64
  %53 = getelementptr inbounds [1000 x [1000 x i32]], [1000 x [1000 x i32]]* @f, i64 0, i64 %52
  %54 = load i32, i32* %8, align 4
  %55 = sext i32 %54 to i64
  %56 = getelementptr inbounds [1000 x i32], [1000 x i32]* %53, i64 0, i64 %55
  %57 = load i32, i32* %56, align 4
  %58 = call i32 (i8*, ...) @printf(i8* getelementptr inbounds ([4 x i8], [4 x i8]* @.str.2, i64 0, i64 0), i32 %57)
  %59 = load i32, i32* %13, align 4
  %60 = add nsw i32 %59, 1
  store i32 %60, i32* %13, align 4
  %61 = load i32, i32* %7, align 4
  %62 = load i32, i32* %4, align 4
  %63 = sext i32 %62 to i64
  %64 = getelementptr inbounds [5 x i32], [5 x i32]* @x, i64 0, i64 %63
  %65 = load i32, i32* %64, align 4
  %66 = add nsw i32 %61, %65
  store i32 %66, i32* %14, align 4
  %67 = load i32, i32* %8, align 4
  %68 = load i32, i32* %4, align 4
  %69 = sext i32 %68 to i64
  %70 = getelementptr inbounds [5 x i32], [5 x i32]* @y, i64 0, i64 %69
  %71 = load i32, i32* %70, align 4
  %72 = add nsw i32 %67, %71
  store i32 %72, i32* %15, align 4
  %73 = load i32, i32* %14, align 4
  %74 = load i32, i32* %9, align 4
  %75 = icmp sgt i32 %73, %74
  br i1 %75, label %88, label %76

76:                                               ; preds = %50
  %77 = load i32, i32* %14, align 4
  %78 = load i32, i32* %11, align 4
  %79 = icmp slt i32 %77, %78
  br i1 %79, label %88, label %80

80:                                               ; preds = %76
  %81 = load i32, i32* %15, align 4
  %82 = load i32, i32* %10, align 4
  %83 = icmp sgt i32 %81, %82
  br i1 %83, label %88, label %84

84:                                               ; preds = %80
  %85 = load i32, i32* %15, align 4
  %86 = load i32, i32* %12, align 4
  %87 = icmp slt i32 %85, %86
  br i1 %87, label %88, label %131

88:                                               ; preds = %84, %80, %76, %50
  %89 = load i32, i32* %4, align 4
  %90 = icmp eq i32 %89, 1
  br i1 %90, label %91, label %94

91:                                               ; preds = %88
  %92 = load i32, i32* %11, align 4
  %93 = add nsw i32 %92, 1
  store i32 %93, i32* %11, align 4
  br label %115

94:                                               ; preds = %88
  %95 = load i32, i32* %4, align 4
  %96 = icmp eq i32 %95, 2
  br i1 %96, label %97, label %100

97:                                               ; preds = %94
  %98 = load i32, i32* %10, align 4
  %99 = add nsw i32 %98, -1
  store i32 %99, i32* %10, align 4
  br label %114

100:                                              ; preds = %94
  %101 = load i32, i32* %4, align 4
  %102 = icmp eq i32 %101, 3
  br i1 %102, label %103, label %106

103:                                              ; preds = %100
  %104 = load i32, i32* %9, align 4
  %105 = add nsw i32 %104, -1
  store i32 %105, i32* %9, align 4
  br label %113

106:                                              ; preds = %100
  %107 = load i32, i32* %4, align 4
  %108 = icmp eq i32 %107, 4
  br i1 %108, label %109, label %112

109:                                              ; preds = %106
  %110 = load i32, i32* %12, align 4
  %111 = add nsw i32 %110, 1
  store i32 %111, i32* %12, align 4
  br label %112

112:                                              ; preds = %109, %106
  br label %113

113:                                              ; preds = %112, %103
  br label %114

114:                                              ; preds = %113, %97
  br label %115

115:                                              ; preds = %114, %91
  %116 = load i32, i32* %4, align 4
  %117 = srem i32 %116, 4
  %118 = add nsw i32 %117, 1
  store i32 %118, i32* %4, align 4
  %119 = load i32, i32* %7, align 4
  %120 = load i32, i32* %4, align 4
  %121 = sext i32 %120 to i64
  %122 = getelementptr inbounds [5 x i32], [5 x i32]* @x, i64 0, i64 %121
  %123 = load i32, i32* %122, align 4
  %124 = add nsw i32 %119, %123
  store i32 %124, i32* %14, align 4
  %125 = load i32, i32* %8, align 4
  %126 = load i32, i32* %4, align 4
  %127 = sext i32 %126 to i64
  %128 = getelementptr inbounds [5 x i32], [5 x i32]* @y, i64 0, i64 %127
  %129 = load i32, i32* %128, align 4
  %130 = add nsw i32 %125, %129
  store i32 %130, i32* %15, align 4
  br label %131

131:                                              ; preds = %115, %84
  %132 = load i32, i32* %14, align 4
  store i32 %132, i32* %7, align 4
  %133 = load i32, i32* %15, align 4
  store i32 %133, i32* %8, align 4
  br label %44

134:                                              ; preds = %44
  ret i32 0
}

declare dso_local i32 @__isoc99_scanf(i8*, ...) #1

declare dso_local i32 @printf(i8*, ...) #1


!llvm.module.flags = !{!0}
!llvm.ident = !{!1}

!0 = !{i32 1, !"wchar_size", i32 4}
!1 = !{!"clang version 10.0.0-4ubuntu1 "}
